#include <math.h>
#include <stdio.h>
#include <stdlib.h>
#include <string.h>

struct s
{
	int d;
	char c[20];
	struct s *next;
};
void sort(struct s *head)
{
	struct s *pre=head,*p=pre->next,*s;
	s=(struct s *)malloc(sizeof(struct s));
	scanf("%s %d",s->c,&s->d);
	s->next=NULL;
	if(s->d>=60)
	{
		while(p!=NULL&&p->d>=s->d)
		{
		    pre=p;
		    p=p->next;
		}
		pre->next=s;
	    s->next=p;
	}
	if(s->d<60)
	{
		while(p!=NULL)
		{
			pre=p;
			p=p->next;
		}
			pre->next=s;
	        s->next=p;
	}
}
int main()
{
	struct s *head,*p;
	int n,i;
	head=(struct s *)malloc(sizeof(struct s));
	scanf("%d",&n);
	head->next=NULL;
	for(i=0;i<n;i++)
	{
		sort(head);
	}
	p=head->next;
	while(p!=NULL)
	{
		printf("%s\n",p->c);
		p=p->next;
	}
	return 0;
}