; ModuleID = '9/228.c'
source_filename = "9/228.c"
target datalayout = "e-m:e-p270:32:32-p271:32:32-p272:64:64-i64:64-f80:128-n8:16:32:64-S128"
target triple = "x86_64-pc-linux-gnu"

%struct.s = type { i32, [20 x i8], %struct.s* }

@.str = private unnamed_addr constant [6 x i8] c"%s %d\00", align 1
@.str.1 = private unnamed_addr constant [3 x i8] c"%d\00", align 1
@.str.2 = private unnamed_addr constant [4 x i8] c"%s\0A\00", align 1

; Function Attrs: noinline nounwind uwtable
define dso_local void @sort(%struct.s* %0) #0 {
  %2 = alloca %struct.s*, align 8
  %3 = alloca %struct.s*, align 8
  %4 = alloca %struct.s*, align 8
  %5 = alloca %struct.s*, align 8
  store %struct.s* %0, %struct.s** %2, align 8
  %6 = load %struct.s*, %struct.s** %2, align 8
  store %struct.s* %6, %struct.s** %3, align 8
  %7 = load %struct.s*, %struct.s** %3, align 8
  %8 = getelementptr inbounds %struct.s, %struct.s* %7, i32 0, i32 2
  %9 = load %struct.s*, %struct.s** %8, align 8
  store %struct.s* %9, %struct.s** %4, align 8
  %10 = call noalias i8* @malloc(i64 32) #3
  %11 = bitcast i8* %10 to %struct.s*
  store %struct.s* %11, %struct.s** %5, align 8
  %12 = load %struct.s*, %struct.s** %5, align 8
  %13 = getelementptr inbounds %struct.s, %struct.s* %12, i32 0, i32 1
  %14 = getelementptr inbounds [20 x i8], [20 x i8]* %13, i64 0, i64 0
  %15 = load %struct.s*, %struct.s** %5, align 8
  %16 = getelementptr inbounds %struct.s, %struct.s* %15, i32 0, i32 0
  %17 = call i32 (i8*, ...) @__isoc99_scanf(i8* getelementptr inbounds ([6 x i8], [6 x i8]* @.str, i64 0, i64 0), i8* %14, i32* %16)
  %18 = load %struct.s*, %struct.s** %5, align 8
  %19 = getelementptr inbounds %struct.s, %struct.s* %18, i32 0, i32 2
  store %struct.s* null, %struct.s** %19, align 8
  %20 = load %struct.s*, %struct.s** %5, align 8
  %21 = getelementptr inbounds %struct.s, %struct.s* %20, i32 0, i32 0
  %22 = load i32, i32* %21, align 8
  %23 = icmp sge i32 %22, 60
  br i1 %23, label %24, label %50

24:                                               ; preds = %1
  br label %25

25:                                               ; preds = %38, %24
  %26 = load %struct.s*, %struct.s** %4, align 8
  %27 = icmp ne %struct.s* %26, null
  br i1 %27, label %28, label %36

28:                                               ; preds = %25
  %29 = load %struct.s*, %struct.s** %4, align 8
  %30 = getelementptr inbounds %struct.s, %struct.s* %29, i32 0, i32 0
  %31 = load i32, i32* %30, align 8
  %32 = load %struct.s*, %struct.s** %5, align 8
  %33 = getelementptr inbounds %struct.s, %struct.s* %32, i32 0, i32 0
  %34 = load i32, i32* %33, align 8
  %35 = icmp sge i32 %31, %34
  br label %36

36:                                               ; preds = %28, %25
  %37 = phi i1 [ false, %25 ], [ %35, %28 ]
  br i1 %37, label %38, label %43

38:                                               ; preds = %36
  %39 = load %struct.s*, %struct.s** %4, align 8
  store %struct.s* %39, %struct.s** %3, align 8
  %40 = load %struct.s*, %struct.s** %4, align 8
  %41 = getelementptr inbounds %struct.s, %struct.s* %40, i32 0, i32 2
  %42 = load %struct.s*, %struct.s** %41, align 8
  store %struct.s* %42, %struct.s** %4, align 8
  br label %25

43:                                               ; preds = %36
  %44 = load %struct.s*, %struct.s** %5, align 8
  %45 = load %struct.s*, %struct.s** %3, align 8
  %46 = getelementptr inbounds %struct.s, %struct.s* %45, i32 0, i32 2
  store %struct.s* %44, %struct.s** %46, align 8
  %47 = load %struct.s*, %struct.s** %4, align 8
  %48 = load %struct.s*, %struct.s** %5, align 8
  %49 = getelementptr inbounds %struct.s, %struct.s* %48, i32 0, i32 2
  store %struct.s* %47, %struct.s** %49, align 8
  br label %50

50:                                               ; preds = %43, %1
  %51 = load %struct.s*, %struct.s** %5, align 8
  %52 = getelementptr inbounds %struct.s, %struct.s* %51, i32 0, i32 0
  %53 = load i32, i32* %52, align 8
  %54 = icmp slt i32 %53, 60
  br i1 %54, label %55, label %71

55:                                               ; preds = %50
  br label %56

56:                                               ; preds = %59, %55
  %57 = load %struct.s*, %struct.s** %4, align 8
  %58 = icmp ne %struct.s* %57, null
  br i1 %58, label %59, label %64

59:                                               ; preds = %56
  %60 = load %struct.s*, %struct.s** %4, align 8
  store %struct.s* %60, %struct.s** %3, align 8
  %61 = load %struct.s*, %struct.s** %4, align 8
  %62 = getelementptr inbounds %struct.s, %struct.s* %61, i32 0, i32 2
  %63 = load %struct.s*, %struct.s** %62, align 8
  store %struct.s* %63, %struct.s** %4, align 8
  br label %56

64:                                               ; preds = %56
  %65 = load %struct.s*, %struct.s** %5, align 8
  %66 = load %struct.s*, %struct.s** %3, align 8
  %67 = getelementptr inbounds %struct.s, %struct.s* %66, i32 0, i32 2
  store %struct.s* %65, %struct.s** %67, align 8
  %68 = load %struct.s*, %struct.s** %4, align 8
  %69 = load %struct.s*, %struct.s** %5, align 8
  %70 = getelementptr inbounds %struct.s, %struct.s* %69, i32 0, i32 2
  store %struct.s* %68, %struct.s** %70, align 8
  br label %71

71:                                               ; preds = %64, %50
  ret void
}

; Function Attrs: nounwind
declare dso_local noalias i8* @malloc(i64) #1

declare dso_local i32 @__isoc99_scanf(i8*, ...) #2

; Function Attrs: noinline nounwind uwtable
define dso_local i32 @main() #0 {
  %1 = alloca i32, align 4
  %2 = alloca %struct.s*, align 8
  %3 = alloca %struct.s*, align 8
  %4 = alloca i32, align 4
  %5 = alloca i32, align 4
  store i32 0, i32* %1, align 4
  %6 = call noalias i8* @malloc(i64 32) #3
  %7 = bitcast i8* %6 to %struct.s*
  store %struct.s* %7, %struct.s** %2, align 8
  %8 = call i32 (i8*, ...) @__isoc99_scanf(i8* getelementptr inbounds ([3 x i8], [3 x i8]* @.str.1, i64 0, i64 0), i32* %4)
  %9 = load %struct.s*, %struct.s** %2, align 8
  %10 = getelementptr inbounds %struct.s, %struct.s* %9, i32 0, i32 2
  store %struct.s* null, %struct.s** %10, align 8
  store i32 0, i32* %5, align 4
  br label %11

11:                                               ; preds = %17, %0
  %12 = load i32, i32* %5, align 4
  %13 = load i32, i32* %4, align 4
  %14 = icmp slt i32 %12, %13
  br i1 %14, label %15, label %20

15:                                               ; preds = %11
  %16 = load %struct.s*, %struct.s** %2, align 8
  call void @sort(%struct.s* %16)
  br label %17

17:                                               ; preds = %15
  %18 = load i32, i32* %5, align 4
  %19 = add nsw i32 %18, 1
  store i32 %19, i32* %5, align 4
  br label %11

20:                                               ; preds = %11
  %21 = load %struct.s*, %struct.s** %2, align 8
  %22 = getelementptr inbounds %struct.s, %struct.s* %21, i32 0, i32 2
  %23 = load %struct.s*, %struct.s** %22, align 8
  store %struct.s* %23, %struct.s** %3, align 8
  br label %24

24:                                               ; preds = %27, %20
  %25 = load %struct.s*, %struct.s** %3, align 8
  %26 = icmp ne %struct.s* %25, null
  br i1 %26, label %27, label %35

27:                                               ; preds = %24
  %28 = load %struct.s*, %struct.s** %3, align 8
  %29 = getelementptr inbounds %struct.s, %struct.s* %28, i32 0, i32 1
  %30 = getelementptr inbounds [20 x i8], [20 x i8]* %29, i64 0, i64 0
  %31 = call i32 (i8*, ...) @printf(i8* getelementptr inbounds ([4 x i8], [4 x i8]* @.str.2, i64 0, i64 0), i8* %30)
  %32 = load %struct.s*, %struct.s** %3, align 8
  %33 = getelementptr inbounds %struct.s, %struct.s* %32, i32 0, i32 2
  %34 = load %struct.s*, %struct.s** %33, align 8
  store %struct.s* %34, %struct.s** %3, align 8
  br label %24

35:                                               ; preds = %24
  ret i32 0
}

declare dso_local i32 @printf(i8*, ...) #2


!llvm.module.flags = !{!0}
!llvm.ident = !{!1}

!0 = !{i32 1, !"wchar_size", i32 4}
!1 = !{!"clang version 10.0.0-4ubuntu1 "}
